; Function Attrs: mustprogress nounwind uwtable
define dso_local void @_ZNSt3__19strstreamD2Ev(ptr noundef nonnull align 8 dereferenceable(120) initializes((0, 8), (16, 32)) %0, ptr noundef %1) unnamed_addr #0 align 2 personality ptr @__gxx_personality_v0 {
  %3 = load ptr, ptr %1, align 8
  store ptr %3, ptr %0, align 8, !tbaa !4
  %4 = getelementptr inbounds nuw i8, ptr %1, i64 64
  %5 = load ptr, ptr %4, align 8
  %6 = getelementptr i8, ptr %3, i64 -24
  %7 = load i64, ptr %6, align 8
  %8 = getelementptr inbounds i8, ptr %0, i64 %7
  store ptr %5, ptr %8, align 8, !tbaa !4
  %9 = getelementptr inbounds nuw i8, ptr %1, i64 72
  %10 = load ptr, ptr %9, align 8
  %11 = getelementptr inbounds nuw i8, ptr %0, i64 16
  store ptr %10, ptr %11, align 8, !tbaa !4
  %12 = getelementptr inbounds nuw i8, ptr %0, i64 24
  store ptr getelementptr inbounds nuw inrange(-16, 112) (i8, ptr @_ZTVNSt3__112strstreambufE, i64 16), ptr %12, align 8, !tbaa !4
  %13 = getelementptr inbounds nuw i8, ptr %0, i64 40
  %14 = load ptr, ptr %13, align 8, !tbaa !23
  %.not.i = icmp eq ptr %14, null
  br i1 %.not.i, label %_ZNSt3__112strstreambufD2Ev.exit, label %15

15:                                               ; preds = %2
  %16 = getelementptr inbounds nuw i8, ptr %0, i64 88
  %17 = load i32, ptr %16, align 8, !tbaa !7
  %18 = and i32 %17, 9
  %or.cond.i = icmp eq i32 %18, 1
  br i1 %or.cond.i, label %19, label %_ZNSt3__112strstreambufD2Ev.exit

19:                                               ; preds = %15
  %20 = getelementptr inbounds nuw i8, ptr %0, i64 112
  %21 = load ptr, ptr %20, align 8, !tbaa !19
  %.not3.i = icmp eq ptr %21, null
  br i1 %.not3.i, label %23, label %22

22:                                               ; preds = %19
  invoke void %21(ptr noundef nonnull %14)
          to label %_ZNSt3__112strstreambufD2Ev.exit unwind label %24

23:                                               ; preds = %19
  tail call void @_ZdaPv(ptr noundef nonnull %14) #20
  br label %_ZNSt3__112strstreambufD2Ev.exit

24:                                               ; preds = %22
  %25 = landingpad { ptr, i32 }
          catch ptr null
  %26 = extractvalue { ptr, i32 } %25, 0
  tail call void @__clang_call_terminate(ptr %26) #21
  unreachable

_ZNSt3__112strstreambufD2Ev.exit:                 ; preds = %2, %15, %22, %23
  store ptr getelementptr inbounds nuw inrange(-16, 112) (i8, ptr @_ZTVNSt3__115basic_streambufIcNS_11char_traitsIcEEEE, i64 16), ptr %12, align 8, !tbaa !4
  %27 = getelementptr inbounds nuw i8, ptr %0, i64 32
  tail call void @_ZNSt3__16localeD1Ev(ptr noundef nonnull align 8 dereferenceable(8) %27) #18
  %28 = getelementptr inbounds nuw i8, ptr %1, i64 8
  tail call void @_ZNSt3__114basic_iostreamIcNS_11char_traitsIcEEED2Ev(ptr noundef nonnull align 8 dereferenceable(24) %0, ptr noundef nonnull %28) #18
  ret void
}